; Function Attrs: mustprogress uwtable
define void @_ZN8facebook5velox9RowVector16appendToChildrenEPKS1_iii(ptr nocapture noundef nonnull readonly align 8 dereferenceable(138) %this, ptr nocapture noundef readonly %source, i32 noundef %sourceIndex, i32 noundef %count, i32 noundef %index) local_unnamed_addr #0 align 2 {
entry:
  %children_ = getelementptr inbounds i8, ptr %this, i64 112
  %_M_finish.i = getelementptr inbounds i8, ptr %this, i64 120
  %0 = load ptr, ptr %_M_finish.i, align 8
  %1 = load ptr, ptr %children_, align 8
  %cmp8.not = icmp eq ptr %0, %1
  br i1 %cmp8.not, label %for.end, label %for.body.lr.ph

for.body.lr.ph:                                   ; preds = %entry
  %childrenSize_.i = getelementptr inbounds i8, ptr %source, i64 104
  %children_.i = getelementptr inbounds i8, ptr %source, i64 112
  br label %for.body

for.body:                                         ; preds = %for.body.lr.ph, %_ZNK8facebook5velox9RowVector7childAtEj.exit
  %indvars.iv = phi i64 [ 0, %for.body.lr.ph ], [ %indvars.iv.next, %_ZNK8facebook5velox9RowVector7childAtEj.exit ]
  %2 = phi ptr [ %1, %for.body.lr.ph ], [ %10, %_ZNK8facebook5velox9RowVector7childAtEj.exit ]
  %3 = load i64, ptr %childrenSize_.i, align 8
  %cmp.not.i = icmp ugt i64 %3, %indvars.iv
  br i1 %cmp.not.i, label %_ZNK8facebook5velox9RowVector7childAtEj.exit, label %if.then.i

if.then.i:                                        ; preds = %for.body
  tail call void @llvm.trap()
  unreachable

_ZNK8facebook5velox9RowVector7childAtEj.exit:     ; preds = %for.body
  %add.ptr.i = getelementptr inbounds %"class.std::shared_ptr.3", ptr %2, i64 %indvars.iv
  %4 = load ptr, ptr %add.ptr.i, align 8
  %5 = load ptr, ptr %children_.i, align 8
  %add.ptr.i.i = getelementptr inbounds %"class.std::shared_ptr.3", ptr %5, i64 %indvars.iv
  %6 = load ptr, ptr %add.ptr.i.i, align 8
  %vtable = load ptr, ptr %6, align 8
  %vfn = getelementptr inbounds i8, ptr %vtable, i64 256
  %7 = load ptr, ptr %vfn, align 8
  %call8 = tail call noundef ptr %7(ptr noundef nonnull align 8 dereferenceable(99) %6)
  %vtable9 = load ptr, ptr %4, align 8
  %vfn10 = getelementptr inbounds i8, ptr %vtable9, i64 208
  %8 = load ptr, ptr %vfn10, align 8
  tail call void %8(ptr noundef nonnull align 8 dereferenceable(99) %4, ptr noundef %call8, i32 noundef %index, i32 noundef %sourceIndex, i32 noundef %count)
  %indvars.iv.next = add nuw i64 %indvars.iv, 1
  %9 = load ptr, ptr %_M_finish.i, align 8
  %10 = load ptr, ptr %children_, align 8
  %sub.ptr.lhs.cast.i = ptrtoint ptr %9 to i64
  %sub.ptr.rhs.cast.i = ptrtoint ptr %10 to i64
  %sub.ptr.sub.i = sub i64 %sub.ptr.lhs.cast.i, %sub.ptr.rhs.cast.i
  %sub.ptr.div.i = ashr exact i64 %sub.ptr.sub.i, 4
  %cmp = icmp ugt i64 %sub.ptr.div.i, %indvars.iv.next
  br i1 %cmp, label %for.body, label %for.end, !llvm.loop !21

for.end:                                          ; preds = %_ZNK8facebook5velox9RowVector7childAtEj.exit, %entry
  ret void
}